target datalayout = "e-m:e-p270:32:32-p271:32:32-p272:64:64-i64:64-i128:128-f80:128-n8:16:32:64-S128"
target triple = "x86_64-pc-linux-gnu"

%struct.blf_params = type { ptr, ptr, ptr, i8, i8, ptr }
%struct.wtap_rec = type { i32, i32, i32, %struct.nstime_t, i32, %struct.nstime_t, i8, %union.anon, ptr, i8, %struct.Buffer, %struct.Buffer }
%struct.nstime_t = type { i64, i32 }
%union.anon = type { %struct.wtap_packet_header }
%struct.wtap_packet_header = type { i32, i32, i32, i32, %union.wtap_pseudo_header }
%union.wtap_pseudo_header = type { %struct.erf_mc_phdr }
%struct.erf_mc_phdr = type { %struct.erf_phdr, [16 x %struct.erf_ehdr], %union.anon.1 }
%struct.erf_phdr = type { i64, i8, i8, i16, i16, i16 }
%struct.erf_ehdr = type { i64 }
%union.anon.1 = type { i32 }
%struct.Buffer = type { ptr, i64, i64, i64 }
%struct.blf_canerrorext = type { i16, i16, i32, i8, i8, i8, i8, i32, i32, i16, i16 }

@.str.61 = private unnamed_addr constant [70 x i8] c"blf: CAN_ERROR_EXT: not enough bytes for canerrorext header in object\00", align 1

; Function Attrs: null_pointer_is_valid sspstrong uwtable
define internal void @blf_add_direction_option(ptr noundef %0, i16 noundef zeroext %1) #2 {
  %3 = alloca ptr, align 8
  %4 = alloca i16, align 2
  %5 = alloca i32, align 4
  store ptr %0, ptr %3, align 8
  store i16 %1, ptr %4, align 2
  call void @llvm.lifetime.start.p0(i64 4, ptr %5) #13
  store i32 0, ptr %5, align 4
  %6 = load i16, ptr %4, align 2
  %7 = zext i16 %6 to i32
  switch i32 %7, label %10 [
    i32 0, label %8
    i32 1, label %9
    i32 2, label %9
  ]

8:                                                ; preds = %2
  store i32 1, ptr %5, align 4
  br label %10

9:                                                ; preds = %2, %2
  store i32 2, ptr %5, align 4
  br label %10

10:                                               ; preds = %2, %9, %8
  %11 = load ptr, ptr %3, align 8
  %12 = getelementptr inbounds nuw %struct.blf_params, ptr %11, i32 0, i32 1
  %13 = load ptr, ptr %12, align 8
  %14 = getelementptr inbounds nuw %struct.wtap_rec, ptr %13, i32 0, i32 8
  %15 = load ptr, ptr %14, align 8
  %16 = load i32, ptr %5, align 4
  %17 = call i32 @wtap_block_add_uint32_option(ptr noundef %15, i32 noundef 2, i32 noundef %16)
  call void @llvm.lifetime.end.p0(i64 4, ptr %5) #13
  ret void
}

; Function Attrs: nounwind null_pointer_is_valid sspstrong uwtable
define internal void @fix_endianness_blf_canerrorext(ptr noundef %0) #0 {
  %2 = alloca ptr, align 8
  store ptr %0, ptr %2, align 8
  %3 = load ptr, ptr %2, align 8
  %4 = getelementptr inbounds nuw %struct.blf_canerrorext, ptr %3, i32 0, i32 0
  %5 = load i16, ptr %4, align 4
  %6 = load ptr, ptr %2, align 8
  %7 = getelementptr inbounds nuw %struct.blf_canerrorext, ptr %6, i32 0, i32 0
  store i16 %5, ptr %7, align 4
  %8 = load ptr, ptr %2, align 8
  %9 = getelementptr inbounds nuw %struct.blf_canerrorext, ptr %8, i32 0, i32 1
  %10 = load i16, ptr %9, align 2
  %11 = load ptr, ptr %2, align 8
  %12 = getelementptr inbounds nuw %struct.blf_canerrorext, ptr %11, i32 0, i32 1
  store i16 %10, ptr %12, align 2
  %13 = load ptr, ptr %2, align 8
  %14 = getelementptr inbounds nuw %struct.blf_canerrorext, ptr %13, i32 0, i32 2
  %15 = load i32, ptr %14, align 4
  %16 = load ptr, ptr %2, align 8
  %17 = getelementptr inbounds nuw %struct.blf_canerrorext, ptr %16, i32 0, i32 2
  store i32 %15, ptr %17, align 4
  %18 = load ptr, ptr %2, align 8
  %19 = getelementptr inbounds nuw %struct.blf_canerrorext, ptr %18, i32 0, i32 7
  %20 = load i32, ptr %19, align 4
  %21 = load ptr, ptr %2, align 8
  %22 = getelementptr inbounds nuw %struct.blf_canerrorext, ptr %21, i32 0, i32 7
  store i32 %20, ptr %22, align 4
  %23 = load ptr, ptr %2, align 8
  %24 = getelementptr inbounds nuw %struct.blf_canerrorext, ptr %23, i32 0, i32 8
  %25 = load i32, ptr %24, align 4
  %26 = load ptr, ptr %2, align 8
  %27 = getelementptr inbounds nuw %struct.blf_canerrorext, ptr %26, i32 0, i32 8
  store i32 %25, ptr %27, align 4
  %28 = load ptr, ptr %2, align 8
  %29 = getelementptr inbounds nuw %struct.blf_canerrorext, ptr %28, i32 0, i32 9
  %30 = load i16, ptr %29, align 4
  %31 = load ptr, ptr %2, align 8
  %32 = getelementptr inbounds nuw %struct.blf_canerrorext, ptr %31, i32 0, i32 9
  store i16 %30, ptr %32, align 4
  ret void
}

; Function Attrs: null_pointer_is_valid sspstrong uwtable
define internal zeroext i1 @blf_read_bytes(ptr noundef %0, i64 noundef %1, ptr noundef %2, i64 noundef %3, ptr noundef %4, ptr noundef %5) #2 {
  %7 = alloca i1, align 1
  %8 = alloca ptr, align 8
  %9 = alloca i64, align 8
  %10 = alloca ptr, align 8
  %11 = alloca i64, align 8
  %12 = alloca ptr, align 8
  %13 = alloca ptr, align 8
  store ptr %0, ptr %8, align 8
  store i64 %1, ptr %9, align 8
  store ptr %2, ptr %10, align 8
  store i64 %3, ptr %11, align 8
  store ptr %4, ptr %12, align 8
  store ptr %5, ptr %13, align 8
  %14 = load ptr, ptr %8, align 8
  %15 = load i64, ptr %9, align 8
  %16 = load ptr, ptr %10, align 8
  %17 = load i64, ptr %11, align 8
  %18 = load ptr, ptr %12, align 8
  %19 = load ptr, ptr %13, align 8
  %20 = call zeroext i1 @blf_read_bytes_or_eof(ptr noundef %14, i64 noundef %15, ptr noundef %16, i64 noundef %17, ptr noundef %18, ptr noundef %19)
  br i1 %20, label %28, label %21

21:                                               ; preds = %6
  %22 = load ptr, ptr %12, align 8
  %23 = load i32, ptr %22, align 4
  %24 = icmp eq i32 %23, 0
  br i1 %24, label %25, label %27

25:                                               ; preds = %21
  %26 = load ptr, ptr %12, align 8
  store i32 -12, ptr %26, align 4
  br label %27

27:                                               ; preds = %25, %21
  store i1 false, ptr %7, align 1
  br label %29

28:                                               ; preds = %6
  store i1 true, ptr %7, align 1
  br label %29

29:                                               ; preds = %28, %27
  %30 = load i1, ptr %7, align 1
  ret i1 %30
}

; Function Attrs: null_pointer_is_valid sspstrong uwtable
define internal zeroext i1 @blf_read_canerrorext(ptr noundef %0, ptr noundef %1, ptr noundef %2, i64 noundef %3, i64 noundef %4, i64 noundef %5, i32 noundef %6, i64 noundef %7) #2 {
  %9 = alloca i1, align 1
  %10 = alloca ptr, align 8
  %11 = alloca ptr, align 8
  %12 = alloca ptr, align 8
  %13 = alloca i64, align 8
  %14 = alloca i64, align 8
  %15 = alloca i64, align 8
  %16 = alloca i32, align 4
  %17 = alloca i64, align 8
  %18 = alloca %struct.blf_canerrorext, align 4
  %19 = alloca i8, align 1
  %20 = alloca i8, align 1
  %21 = alloca i8, align 1
  %22 = alloca i32, align 4
  %23 = alloca i8, align 1
  %24 = alloca [16 x i8], align 16
  %25 = alloca i32, align 4
  store ptr %0, ptr %10, align 8
  store ptr %1, ptr %11, align 8
  store ptr %2, ptr %12, align 8
  store i64 %3, ptr %13, align 8
  store i64 %4, ptr %14, align 8
  store i64 %5, ptr %15, align 8
  store i32 %6, ptr %16, align 4
  store i64 %7, ptr %17, align 8
  call void @llvm.lifetime.start.p0(i64 24, ptr %18) #13
  call void @llvm.lifetime.start.p0(i64 1, ptr %19) #13
  store i8 0, ptr %19, align 1
  call void @llvm.lifetime.start.p0(i64 1, ptr %20) #13
  store i8 0, ptr %20, align 1
  call void @llvm.lifetime.start.p0(i64 1, ptr %21) #13
  call void @llvm.lifetime.start.p0(i64 4, ptr %22) #13
  call void @llvm.lifetime.start.p0(i64 1, ptr %23) #13
  call void @llvm.lifetime.start.p0(i64 16, ptr %24) #13
  call void @llvm.memset.p0.i64(ptr align 16 %24, i8 0, i64 16, i1 false)
  %26 = load i64, ptr %15, align 8
  %27 = load i64, ptr %14, align 8
  %28 = load i64, ptr %13, align 8
  %29 = sub i64 %27, %28
  %30 = add i64 %29, 24
  %31 = icmp slt i64 %26, %30
  br i1 %31, label %32, label %39

32:                                               ; preds = %8
  %33 = load ptr, ptr %11, align 8
  store i32 -13, ptr %33, align 4
  %34 = call noalias ptr @wmem_strdup(ptr noundef null, ptr noundef @.str.61)
  %35 = load ptr, ptr %12, align 8
  store ptr %34, ptr %35, align 8
  br label %36

36:                                               ; preds = %32
  br label %37

37:                                               ; preds = %36
  br label %38

38:                                               ; preds = %37
  store i1 false, ptr %9, align 1
  store i32 1, ptr %25, align 4
  br label %151

39:                                               ; preds = %8
  %40 = load ptr, ptr %10, align 8
  %41 = load i64, ptr %14, align 8
  %42 = load ptr, ptr %11, align 8
  %43 = load ptr, ptr %12, align 8
  %44 = call zeroext i1 @blf_read_bytes(ptr noundef %40, i64 noundef %41, ptr noundef %18, i64 noundef 24, ptr noundef %42, ptr noundef %43)
  br i1 %44, label %49, label %45

45:                                               ; preds = %39
  br label %46

46:                                               ; preds = %45
  br label %47

47:                                               ; preds = %46
  br label %48

48:                                               ; preds = %47
  store i1 false, ptr %9, align 1
  store i32 1, ptr %25, align 4
  br label %151

49:                                               ; preds = %39
  call void @fix_endianness_blf_canerrorext(ptr noundef %18)
  %50 = getelementptr inbounds nuw %struct.blf_canerrorext, ptr %18, i32 0, i32 2
  %51 = load i32, ptr %50, align 4
  %52 = and i32 %51, 2
  %53 = icmp ne i32 %52, 0
  br i1 %53, label %54, label %90

54:                                               ; preds = %49
  %55 = getelementptr inbounds nuw %struct.blf_canerrorext, ptr %18, i32 0, i32 9
  %56 = load i16, ptr %55, align 4
  %57 = zext i16 %56 to i32
  %58 = ashr i32 %57, 6
  %59 = and i32 %58, 63
  switch i32 %59, label %72 [
    i32 0, label %60
    i32 1, label %62
    i32 2, label %64
    i32 4, label %66
    i32 7, label %68
    i32 8, label %70
  ]

60:                                               ; preds = %54
  store i8 1, ptr %20, align 1
  %61 = getelementptr [16 x i8], ptr %24, i64 0, i64 10
  store i8 1, ptr %61, align 2
  br label %74

62:                                               ; preds = %54
  store i8 1, ptr %20, align 1
  %63 = getelementptr [16 x i8], ptr %24, i64 0, i64 10
  store i8 2, ptr %63, align 2
  br label %74

64:                                               ; preds = %54
  store i8 1, ptr %20, align 1
  %65 = getelementptr [16 x i8], ptr %24, i64 0, i64 10
  store i8 4, ptr %65, align 2
  br label %74

66:                                               ; preds = %54
  store i8 1, ptr %20, align 1
  %67 = getelementptr [16 x i8], ptr %24, i64 0, i64 11
  store i8 8, ptr %67, align 1
  br label %74

68:                                               ; preds = %54
  store i8 1, ptr %19, align 1
  %69 = getelementptr [16 x i8], ptr %24, i64 0, i64 11
  store i8 25, ptr %69, align 1
  br label %74

70:                                               ; preds = %54
  store i8 1, ptr %20, align 1
  %71 = getelementptr [16 x i8], ptr %24, i64 0, i64 10
  store i8 32, ptr %71, align 2
  br label %74

72:                                               ; preds = %54
  store i8 1, ptr %20, align 1
  %73 = getelementptr [16 x i8], ptr %24, i64 0, i64 10
  store i8 0, ptr %73, align 2
  br label %74

74:                                               ; preds = %72, %70, %68, %66, %64, %62, %60
  %75 = load i8, ptr %19, align 1, !range !8, !noundef !9
  %76 = trunc i8 %75 to i1
  br i1 %76, label %83, label %77

77:                                               ; preds = %74
  %78 = getelementptr inbounds nuw %struct.blf_canerrorext, ptr %18, i32 0, i32 9
  %79 = load i16, ptr %78, align 4
  %80 = zext i16 %79 to i32
  %81 = and i32 %80, 8192
  %82 = icmp eq i32 %81, 0
  br label %83

83:                                               ; preds = %77, %74
  %84 = phi i1 [ true, %74 ], [ %82, %77 ]
  %85 = zext i1 %84 to i8
  store i8 %85, ptr %19, align 1
  %86 = load i8, ptr %19, align 1, !range !8, !noundef !9
  %87 = trunc i8 %86 to i1
  br i1 %87, label %88, label %89

88:                                               ; preds = %83
  store i8 0, ptr %20, align 1
  br label %89

89:                                               ; preds = %88, %83
  br label %90

90:                                               ; preds = %89, %49
  store i32 536870912, ptr %22, align 4
  %91 = load i8, ptr %20, align 1, !range !8, !noundef !9
  %92 = trunc i8 %91 to i1
  %93 = select i1 %92, i32 8, i32 0
  %94 = load i32, ptr %22, align 4
  %95 = or i32 %94, %93
  store i32 %95, ptr %22, align 4
  %96 = load i8, ptr %19, align 1, !range !8, !noundef !9
  %97 = trunc i8 %96 to i1
  %98 = select i1 %97, i32 32, i32 0
  %99 = load i32, ptr %22, align 4
  %100 = or i32 %99, %98
  store i32 %100, ptr %22, align 4
  store i8 8, ptr %23, align 1
  %101 = load i8, ptr %23, align 1
  %102 = getelementptr inbounds nuw %struct.blf_canerrorext, ptr %18, i32 0, i32 5
  store i8 %101, ptr %102, align 2
  %103 = load i32, ptr %22, align 4
  %104 = and i32 %103, -16777216
  %105 = lshr i32 %104, 24
  %106 = trunc i32 %105 to i8
  %107 = getelementptr [16 x i8], ptr %24, i64 0, i64 0
  store i8 %106, ptr %107, align 16
  %108 = load i32, ptr %22, align 4
  %109 = and i32 %108, 16711680
  %110 = lshr i32 %109, 16
  %111 = trunc i32 %110 to i8
  %112 = getelementptr [16 x i8], ptr %24, i64 0, i64 1
  store i8 %111, ptr %112, align 1
  %113 = load i32, ptr %22, align 4
  %114 = and i32 %113, 65280
  %115 = lshr i32 %114, 8
  %116 = trunc i32 %115 to i8
  %117 = getelementptr [16 x i8], ptr %24, i64 0, i64 2
  store i8 %116, ptr %117, align 2
  %118 = load i32, ptr %22, align 4
  %119 = and i32 %118, 255
  %120 = trunc i32 %119 to i8
  %121 = getelementptr [16 x i8], ptr %24, i64 0, i64 3
  store i8 %120, ptr %121, align 1
  %122 = load i8, ptr %23, align 1
  %123 = getelementptr [16 x i8], ptr %24, i64 0, i64 4
  store i8 %122, ptr %123, align 4
  %124 = load ptr, ptr %10, align 8
  %125 = getelementptr inbounds nuw %struct.blf_params, ptr %124, i32 0, i32 1
  %126 = load ptr, ptr %125, align 8
  %127 = getelementptr inbounds nuw %struct.wtap_rec, ptr %126, i32 0, i32 11
  %128 = getelementptr inbounds [16 x i8], ptr %24, i64 0, i64 0
  call void @ws_buffer_append(ptr noundef %127, ptr noundef %128, i64 noundef 16)
  %129 = load ptr, ptr %10, align 8
  %130 = load i32, ptr %16, align 4
  %131 = load i64, ptr %17, align 8
  %132 = getelementptr inbounds nuw %struct.blf_canerrorext, ptr %18, i32 0, i32 0
  %133 = load i16, ptr %132, align 4
  call void @blf_init_rec(ptr noundef %129, i32 noundef %130, i64 noundef %131, i32 noundef 125, i16 noundef zeroext %133, i16 noundef zeroext -1, i32 noundef 16, i32 noundef 16)
  %134 = getelementptr inbounds nuw %struct.blf_canerrorext, ptr %18, i32 0, i32 2
  %135 = load i32, ptr %134, align 4
  %136 = and i32 %135, 2
  %137 = icmp ne i32 %136, 0
  br i1 %137, label %138, label %150

138:                                              ; preds = %90
  %139 = getelementptr inbounds nuw %struct.blf_canerrorext, ptr %18, i32 0, i32 9
  %140 = load i16, ptr %139, align 4
  %141 = zext i16 %140 to i32
  %142 = and i32 %141, 4096
  %143 = icmp eq i32 %142, 4096
  %144 = zext i1 %143 to i8
  store i8 %144, ptr %21, align 1
  %145 = load ptr, ptr %10, align 8
  %146 = load i8, ptr %21, align 1, !range !8, !noundef !9
  %147 = trunc i8 %146 to i1
  %148 = select i1 %147, i32 1, i32 0
  %149 = trunc i32 %148 to i16
  call void @blf_add_direction_option(ptr noundef %145, i16 noundef zeroext %149)
  br label %150

150:                                              ; preds = %138, %90
  store i1 true, ptr %9, align 1
  store i32 1, ptr %25, align 4
  br label %151

151:                                              ; preds = %150, %48, %38
  call void @llvm.lifetime.end.p0(i64 16, ptr %24) #13
  call void @llvm.lifetime.end.p0(i64 1, ptr %23) #13
  call void @llvm.lifetime.end.p0(i64 4, ptr %22) #13
  call void @llvm.lifetime.end.p0(i64 1, ptr %21) #13
  call void @llvm.lifetime.end.p0(i64 1, ptr %20) #13
  call void @llvm.lifetime.end.p0(i64 1, ptr %19) #13
  call void @llvm.lifetime.end.p0(i64 24, ptr %18) #13
  %152 = load i1, ptr %9, align 1
  ret i1 %152
}