; Function Attrs: null_pointer_is_valid sspstrong uwtable
define internal fastcc noundef zeroext i1 @blf_read_canerrorext(ptr noundef readonly captures(none) %0, ptr noundef %1, ptr noundef %2, i64 noundef %3, i64 noundef %4, i64 noundef range(i64 0, 4294967296) %5, i32 noundef %6, i64 noundef %7) unnamed_addr #2 {
  %9 = alloca %struct.blf_canerrorext, align 4
  %10 = alloca [16 x i8], align 16
  call void @llvm.lifetime.start.p0(i64 24, ptr nonnull %9) #14
  call void @llvm.lifetime.start.p0(i64 16, ptr nonnull %10) #14
  call void @llvm.memset.p0.i64(ptr noundef nonnull align 16 dereferenceable(16) %10, i8 0, i64 16, i1 false)
  %reass.sub = sub i64 %4, %3
  %11 = add i64 %reass.sub, 24
  %12 = icmp slt i64 %5, %11
  br i1 %12, label %13, label %15

13:                                               ; preds = %8
  store i32 -13, ptr %1, align 4
  %14 = tail call noalias ptr @wmem_strdup(ptr noundef null, ptr noundef nonnull @.str.61)
  store ptr %14, ptr %2, align 8
  br label %blf_read_bytes.exit.thread

15:                                               ; preds = %8
  %16 = call fastcc zeroext i1 @blf_read_bytes_or_eof(ptr noundef readonly %0, i64 noundef %4, ptr noundef nonnull %9, i64 noundef 24, ptr noundef %1, ptr noundef %2)
  br i1 %16, label %blf_read_bytes.exit, label %17

17:                                               ; preds = %15
  %18 = load i32, ptr %1, align 4
  %19 = icmp eq i32 %18, 0
  br i1 %19, label %20, label %blf_read_bytes.exit.thread

20:                                               ; preds = %17
  store i32 -12, ptr %1, align 4
  br label %blf_read_bytes.exit.thread

blf_read_bytes.exit:                              ; preds = %15
  %21 = getelementptr inbounds nuw i8, ptr %9, i64 4
  %22 = load i32, ptr %21, align 4
  %23 = and i32 %22, 2
  %.not = icmp eq i32 %23, 0
  br i1 %.not, label %.thread45, label %24

24:                                               ; preds = %blf_read_bytes.exit
  %25 = getelementptr inbounds nuw i8, ptr %9, i64 20
  %26 = load i16, ptr %25, align 4
  %.fr = freeze i16 %26
  %27 = lshr i16 %.fr, 6
  %28 = and i16 %27, 63
  switch i16 %28, label %40 [
    i16 0, label %29
    i16 1, label %31
    i16 2, label %33
    i16 4, label %35
    i16 7, label %.thread42
    i16 8, label %38
  ]

29:                                               ; preds = %24
  %30 = getelementptr inbounds nuw i8, ptr %10, i64 10
  store i8 1, ptr %30, align 2
  br label %42

31:                                               ; preds = %24
  %32 = getelementptr inbounds nuw i8, ptr %10, i64 10
  store i8 2, ptr %32, align 2
  br label %42

33:                                               ; preds = %24
  %34 = getelementptr inbounds nuw i8, ptr %10, i64 10
  store i8 4, ptr %34, align 2
  br label %42

35:                                               ; preds = %24
  %36 = getelementptr inbounds nuw i8, ptr %10, i64 11
  store i8 8, ptr %36, align 1
  br label %42

.thread42:                                        ; preds = %24
  %37 = getelementptr inbounds nuw i8, ptr %10, i64 11
  store i8 25, ptr %37, align 1
  br label %45

38:                                               ; preds = %24
  %39 = getelementptr inbounds nuw i8, ptr %10, i64 10
  store i8 32, ptr %39, align 2
  br label %42

40:                                               ; preds = %24
  %41 = getelementptr inbounds nuw i8, ptr %10, i64 10
  store i8 0, ptr %41, align 2
  br label %42

42:                                               ; preds = %29, %31, %33, %35, %38, %40
  %43 = and i16 %.fr, 8192
  %44 = icmp eq i16 %43, 0
  br i1 %44, label %45, label %.thread45

45:                                               ; preds = %42, %.thread42
  br label %.thread45

.thread45:                                        ; preds = %42, %blf_read_bytes.exit, %45
  %46 = phi i8 [ 32, %45 ], [ 0, %blf_read_bytes.exit ], [ 8, %42 ]
  %47 = getelementptr inbounds nuw i8, ptr %9, i64 10
  store i8 8, ptr %47, align 2
  store i8 32, ptr %10, align 16
  %48 = getelementptr inbounds nuw i8, ptr %10, i64 1
  store i8 0, ptr %48, align 1
  %49 = getelementptr inbounds nuw i8, ptr %10, i64 2
  store i8 0, ptr %49, align 2
  %50 = getelementptr inbounds nuw i8, ptr %10, i64 3
  store i8 %46, ptr %50, align 1
  %51 = getelementptr inbounds nuw i8, ptr %10, i64 4
  store i8 8, ptr %51, align 4
  %52 = getelementptr inbounds nuw i8, ptr %0, i64 8
  %53 = load ptr, ptr %52, align 8
  %54 = getelementptr inbounds nuw i8, ptr %53, i64 280
  call void @ws_buffer_append(ptr noundef nonnull %54, ptr noundef nonnull %10, i64 noundef 16)
  %55 = load i16, ptr %9, align 4
  call fastcc void @blf_init_rec(ptr noundef %0, i32 noundef %6, i64 noundef %7, i32 noundef 125, i16 noundef zeroext %55, i16 noundef zeroext -1, i32 noundef 16, i32 noundef 16)
  %56 = load i32, ptr %21, align 4
  %57 = and i32 %56, 2
  %.not30 = icmp eq i32 %57, 0
  br i1 %.not30, label %blf_read_bytes.exit.thread, label %blf_add_direction_option.exit

blf_add_direction_option.exit:                    ; preds = %.thread45
  %58 = getelementptr inbounds nuw i8, ptr %9, i64 20
  %59 = load i16, ptr %58, align 4
  %60 = and i16 %59, 4096
  %switch.not.not = icmp eq i16 %60, 0
  %. = select i1 %switch.not.not, i32 1, i32 2
  %61 = load ptr, ptr %52, align 8
  %62 = getelementptr inbounds nuw i8, ptr %61, i64 232
  %63 = load ptr, ptr %62, align 8
  %64 = call i32 @wtap_block_add_uint32_option(ptr noundef %63, i32 noundef 2, i32 noundef %.)
  br label %blf_read_bytes.exit.thread

blf_read_bytes.exit.thread:                       ; preds = %20, %17, %.thread45, %blf_add_direction_option.exit, %13
  %.0 = phi i1 [ false, %13 ], [ true, %blf_add_direction_option.exit ], [ true, %.thread45 ], [ false, %17 ], [ false, %20 ]
  call void @llvm.lifetime.end.p0(i64 16, ptr nonnull %10) #14
  call void @llvm.lifetime.end.p0(i64 24, ptr nonnull %9) #14
  ret i1 %.0
}